target datalayout = "e-m:e-p270:32:32-p271:32:32-p272:64:64-i64:64-i128:128-f80:128-n8:16:32:64-S128"
target triple = "x86_64-pc-linux-gnu"

; Function Attrs: mustprogress nounwind uwtable
define hidden noundef i64 @_ZN11JfrThreadId6jfr_idEPK6Threadm(ptr noundef %0, i64 noundef %1) #1 align 2 {
  %3 = alloca ptr, align 8
  %4 = alloca i64, align 8
  store ptr %0, ptr %3, align 8
  store i64 %1, ptr %4, align 8
  %5 = load i64, ptr %4, align 8
  %6 = icmp ne i64 %5, 0
  br i1 %6, label %7, label %9

7:                                                ; preds = %2
  %8 = load i64, ptr %4, align 8
  br label %12

9:                                                ; preds = %2
  %10 = load ptr, ptr %3, align 8
  %11 = call noundef i64 @_ZN14JfrThreadLocal13jvm_thread_idEPK6Thread(ptr noundef %10)
  br label %12

12:                                               ; preds = %9, %7
  %13 = phi i64 [ %8, %7 ], [ %11, %9 ]
  ret i64 %13
}