; Function Attrs: mustprogress nounwind uwtable
define hidden noundef i64 @_ZN11JfrThreadId6jfr_idEPK6Threadm(ptr noundef %0, i64 noundef %1) local_unnamed_addr #0 align 2 {
  %.not = icmp eq i64 %1, 0
  br i1 %.not, label %3, label %5

3:                                                ; preds = %2
  %4 = tail call noundef i64 @_ZN14JfrThreadLocal13jvm_thread_idEPK6Thread(ptr noundef %0) #8
  br label %5

5:                                                ; preds = %2, %3
  %6 = phi i64 [ %4, %3 ], [ %1, %2 ]
  ret i64 %6
}